#include <math.h>
#include <stdio.h>
#include <stdlib.h>
#include <string.h>

void main()
{
	int n,i,j=0,a[111111],k,m,s;
	scanf("%d",&n);
	if(n<5) printf("empty\n");
	else
	{
        for(m=2;m<=n;m++)
		{
			k=sqrt(m);
			for(i=2;i<=k;i++)
				if(m%i==0) break;
			if(i>k)
			{
				a[j]=m;j++;
			}
			else continue;
		}
	}
	s=j;
	for(j=0;j<=s;j++)
	{
		if(a[j+1]-a[j]==2) printf("%d %d\n",a[j],a[j+1]);
		else continue;
	}
}